; Function Attrs: mustprogress uwtable
define hidden noundef i32 @_ZN5ceres8internal21RefinedSparseCholesky5SolveEPKdPdPNSt7__cxx1112basic_stringIcSt11char_traitsIcESaIcEEE(ptr noundef nonnull readonly align 8 captures(none) dereferenceable(32) %0, ptr noundef %1, ptr noundef %2, ptr noundef %3) unnamed_addr #0 align 2 personality ptr @__gxx_personality_v0 {
  %5 = alloca %"class.absl::lts_20240116::log_internal::LogMessageFatal", align 8
  %6 = getelementptr inbounds nuw i8, ptr %0, i64 24
  %7 = load ptr, ptr %6, align 8, !tbaa !42
  %.not = icmp eq ptr %7, null
  br i1 %.not, label %8, label %.critedge, !prof !60

8:                                                ; preds = %4
  call void @llvm.lifetime.start.p0(i64 16, ptr nonnull %5) #15
  call void @_ZN4absl12lts_2024011612log_internal15LogMessageFatalC1EPKciSt17basic_string_viewIcSt11char_traitsIcEE(ptr noundef nonnull align 8 dereferenceable(16) %5, ptr noundef nonnull @.str, i32 noundef 157, i64 15, ptr nonnull @.str.7) #16
  call void @_ZN4absl12lts_2024011612log_internal15LogMessageFatalD1Ev(ptr noundef nonnull align 8 dereferenceable(16) %5) #17
  unreachable

.critedge:                                        ; preds = %4
  %9 = getelementptr inbounds nuw i8, ptr %0, i64 8
  %10 = load ptr, ptr %9, align 8, !tbaa !27
  %11 = load ptr, ptr %10, align 8, !tbaa !35
  %12 = getelementptr inbounds nuw i8, ptr %11, i64 32
  %13 = load ptr, ptr %12, align 8
  %14 = tail call noundef i32 %13(ptr noundef nonnull align 8 dereferenceable(8) %10, ptr noundef %1, ptr noundef %2, ptr noundef %3)
  %.not13 = icmp eq i32 %14, 0
  br i1 %.not13, label %15, label %23

15:                                               ; preds = %.critedge
  %16 = getelementptr inbounds nuw i8, ptr %0, i64 16
  %17 = load ptr, ptr %16, align 8, !tbaa !40
  %18 = load ptr, ptr %6, align 8, !tbaa !42
  %19 = load ptr, ptr %9, align 8, !tbaa !27
  %20 = load ptr, ptr %17, align 8, !tbaa !35
  %21 = getelementptr inbounds nuw i8, ptr %20, i64 16
  %22 = load ptr, ptr %21, align 8
  tail call void %22(ptr noundef nonnull align 8 dereferenceable(64) %17, ptr noundef nonnull align 8 dereferenceable(8) %18, ptr noundef %1, ptr noundef %19, ptr noundef %2)
  br label %23

23:                                               ; preds = %.critedge, %15
  ret i32 %14
}